; Function Attrs: nounwind uwtable
define internal fastcc void @setup_int_define(ptr noundef %0, i64 noundef %1, ptr noundef %2) unnamed_addr #0 {
  %4 = alloca i32, align 4
  store i32 65, ptr %4, align 4
  %5 = tail call i64 @strlen(ptr noundef nonnull dereferenceable(1) %0) #22
  %6 = trunc i64 %5 to i32
  %.not.i = icmp eq i32 %6, 0
  br i1 %.not.i, label %fnv1a.exit, label %.lr.ph.preheader.i

.lr.ph.preheader.i:                               ; preds = %3
  %wide.trip.count.i = and i64 %5, 4294967295
  br label %.lr.ph.i

.lr.ph.i:                                         ; preds = %.lr.ph.i, %.lr.ph.preheader.i
  %indvars.iv.i = phi i64 [ 0, %.lr.ph.preheader.i ], [ %indvars.iv.next.i, %.lr.ph.i ]
  %.067.i = phi i32 [ -2128831035, %.lr.ph.preheader.i ], [ %11, %.lr.ph.i ]
  %7 = getelementptr inbounds i8, ptr %0, i64 %indvars.iv.i
  %8 = load i8, ptr %7, align 1
  %9 = sext i8 %8 to i32
  %10 = xor i32 %.067.i, %9
  %11 = mul i32 %10, 16777619
  %indvars.iv.next.i = add nuw nsw i64 %indvars.iv.i, 1
  %exitcond.not.i = icmp eq i64 %indvars.iv.next.i, %wide.trip.count.i
  br i1 %exitcond.not.i, label %fnv1a.exit, label %.lr.ph.i, !llvm.loop !31

fnv1a.exit:                                       ; preds = %.lr.ph.i, %3
  %.06.lcssa.i = phi i32 [ -2128831035, %3 ], [ %11, %.lr.ph.i ]
  %12 = call ptr @symtab_add(ptr noundef %0, i32 noundef %6, i32 noundef %.06.lcssa.i, ptr noundef nonnull %4) #20
  br label %13

13:                                               ; preds = %26, %fnv1a.exit
  %.0.i = phi ptr [ %2, %fnv1a.exit ], [ %.1.i, %26 ]
  %14 = getelementptr inbounds i8, ptr %.0.i, i64 8
  %15 = load ptr, ptr %14, align 8
  %16 = load i32, ptr %15, align 8
  switch i32 %16, label %type_flatten.exit [
    i32 32, label %17
    i32 40, label %23
    i32 31, label %25
  ]

17:                                               ; preds = %13
  %18 = getelementptr inbounds i8, ptr %15, i64 56
  %19 = load ptr, ptr %18, align 8
  %20 = getelementptr inbounds i8, ptr %19, i64 96
  %21 = load ptr, ptr %20, align 8
  %22 = getelementptr inbounds i8, ptr %21, i64 8
  br label %26

23:                                               ; preds = %13
  %24 = getelementptr inbounds i8, ptr %15, i64 56
  br label %26

25:                                               ; preds = %13
  call void (ptr, ...) @error_exit(ptr noundef nonnull @.str.14, ptr noundef nonnull @.str.15, ptr noundef nonnull @__func__.type_flatten, ptr noundef nonnull @.str.141, i32 noundef 2984) #21
  unreachable

26:                                               ; preds = %23, %17
  %.1.in.i = phi ptr [ %24, %23 ], [ %22, %17 ]
  %.1.i = load ptr, ptr %.1.in.i, align 8
  br label %13

type_flatten.exit:                                ; preds = %13
  %27 = call ptr @expr_new_const_int(i64 0, ptr noundef nonnull %15, i64 noundef %1) #20
  store ptr %2, ptr %27, align 8
  %28 = getelementptr inbounds i8, ptr %27, i64 24
  %29 = load i32, ptr %15, align 8
  %30 = call zeroext i1 @expr_const_will_overflow(ptr noundef nonnull %28, i32 noundef %29) #20
  br i1 %30, label %31, label %32

31:                                               ; preds = %type_flatten.exit
  call void (ptr, ...) @error_exit(ptr noundef nonnull @.str.139, ptr noundef %12) #21
  unreachable

32:                                               ; preds = %type_flatten.exit
  %33 = call ptr @htable_set(ptr noundef nonnull getelementptr inbounds (%struct.GlobalContext, ptr @global_context, i64 0, i32 15), ptr noundef %12, ptr noundef nonnull %27) #20
  %.not = icmp eq ptr %33, null
  br i1 %.not, label %35, label %34

34:                                               ; preds = %32
  call void (ptr, ...) @error_exit(ptr noundef nonnull @.str.140, ptr noundef %12) #21
  unreachable

35:                                               ; preds = %32
  ret void
}